; Function Attrs: mustprogress nounwind uwtable
define hidden void @_ZN9ZStatHeap19at_collection_startERK19ZPageAllocatorStats(ptr noundef nonnull align 8 dereferenceable(488) %0, ptr nocapture noundef nonnull readonly align 8 dereferenceable(96) %1) local_unnamed_addr #0 align 2 {
_ZN7ZLockerI5ZLockED2Ev.exit:
  %2 = tail call i32 @pthread_mutex_lock(ptr noundef nonnull %0) #20
  %3 = getelementptr inbounds i8, ptr %1, i64 16
  %4 = load i64, ptr %3, align 8
  %5 = getelementptr inbounds i8, ptr %0, i64 40
  store i64 %4, ptr %5, align 8
  %6 = getelementptr inbounds i8, ptr %1, i64 24
  %7 = load i64, ptr %6, align 8
  %8 = getelementptr inbounds i8, ptr %0, i64 48
  store i64 %7, ptr %8, align 8
  %9 = getelementptr inbounds i8, ptr %1, i64 32
  %10 = load i64, ptr %9, align 8
  %11 = load i64, ptr getelementptr inbounds (i8, ptr @_ZN9ZStatHeap14_at_initializeE, i64 8), align 8
  %12 = sub i64 %11, %10
  %13 = getelementptr inbounds i8, ptr %0, i64 56
  store i64 %12, ptr %13, align 8
  %14 = load i64, ptr %9, align 8
  %15 = getelementptr inbounds i8, ptr %0, i64 64
  store i64 %14, ptr %15, align 8
  %16 = getelementptr inbounds i8, ptr %1, i64 56
  %17 = load i64, ptr %16, align 8
  %18 = getelementptr inbounds i8, ptr %0, i64 72
  store i64 %17, ptr %18, align 8
  %19 = tail call i32 @pthread_mutex_unlock(ptr noundef nonnull %0) #20
  ret void
}